; Function Attrs: mustprogress uwtable
define hidden void @_ZN4cvc58internal6theory12PluginModule11notifyLemmaENS0_12NodeTemplateILb0EEENS1_11InferenceIdENS1_13LemmaPropertyERKSt6vectorINS3_ILb1EEESaIS8_EESC_(ptr noundef nonnull readonly align 8 captures(none) dereferenceable(160) %0, ptr noundef readonly captures(none) %1, i32 %2, i32 %3, ptr noundef nonnull readonly align 8 captures(none) dereferenceable(24) %4, ptr nonnull readnone align 8 captures(none) %5) unnamed_addr #4 align 2 personality ptr @__gxx_personality_v0 {
  %7 = alloca %"class.cvc5::internal::NodeTemplate", align 8
  call void @llvm.lifetime.start.p0(i64 8, ptr nonnull %7) #15
  %8 = load ptr, ptr %1, align 8, !tbaa !46
  store ptr %8, ptr %7, align 8, !tbaa !37
  %9 = load i64, ptr %8, align 8
  %10 = lshr i64 %9, 40
  %11 = trunc nuw nsw i64 %10 to i32
  %12 = and i32 %11, 1048575
  %13 = icmp samesign ult i32 %12, 1048574
  br i1 %13, label %14, label %19, !prof !45

14:                                               ; preds = %6
  %15 = add i64 %9, 1099511627776
  %16 = and i64 %15, 1152920405095219200
  %17 = and i64 %9, -1152920405095219201
  %18 = or disjoint i64 %16, %17
  store i64 %18, ptr %8, align 8
  br label %_ZN4cvc58internal12NodeTemplateILb1EEC2ERKNS1_ILb0EEE.exit

19:                                               ; preds = %6
  %20 = icmp eq i32 %12, 1048574
  br i1 %20, label %21, label %_ZN4cvc58internal12NodeTemplateILb1EEC2ERKNS1_ILb0EEE.exit, !prof !40

21:                                               ; preds = %19
  %22 = or i64 %9, 1152920405095219200
  store i64 %22, ptr %8, align 8
  tail call void @_ZN4cvc58internal4expr9NodeValue20markRefCountMaxedOutEv(ptr noundef nonnull align 8 dereferenceable(24) %8)
  br label %_ZN4cvc58internal12NodeTemplateILb1EEC2ERKNS1_ILb0EEE.exit

_ZN4cvc58internal12NodeTemplateILb1EEC2ERKNS1_ILb0EEE.exit: ; preds = %14, %19, %21
  invoke void @_ZN4cvc58internal6theory12PluginModule19notifyLemmaInternalERKNS0_12NodeTemplateILb1EEE(ptr noundef nonnull align 8 dereferenceable(160) %0, ptr noundef nonnull align 8 dereferenceable(8) %7)
          to label %23 unwind label %40

23:                                               ; preds = %_ZN4cvc58internal12NodeTemplateILb1EEC2ERKNS1_ILb0EEE.exit
  %24 = load ptr, ptr %7, align 8, !tbaa !37
  %25 = load i64, ptr %24, align 8
  %26 = and i64 %25, 1152920405095219200
  %.not.i.i = icmp eq i64 %26, 1152920405095219200
  br i1 %.not.i.i, label %_ZN4cvc58internal12NodeTemplateILb1EED2Ev.exit, label %27, !prof !40

27:                                               ; preds = %23
  %28 = add i64 %25, 1152920405095219200
  %29 = and i64 %28, 1152920405095219200
  %30 = and i64 %25, -1152920405095219201
  %31 = or disjoint i64 %29, %30
  store i64 %31, ptr %24, align 8
  %32 = icmp eq i64 %29, 0
  br i1 %32, label %33, label %_ZN4cvc58internal12NodeTemplateILb1EED2Ev.exit, !prof !40

33:                                               ; preds = %27
  invoke void @_ZN4cvc58internal4expr9NodeValue15markForDeletionEv(ptr noundef nonnull align 8 dereferenceable(24) %24)
          to label %_ZN4cvc58internal12NodeTemplateILb1EED2Ev.exit unwind label %34

34:                                               ; preds = %33
  %35 = landingpad { ptr, i32 }
          catch ptr null
  %36 = extractvalue { ptr, i32 } %35, 0
  call void @__clang_call_terminate(ptr %36) #17
  unreachable

_ZN4cvc58internal12NodeTemplateILb1EED2Ev.exit:   ; preds = %23, %27, %33
  call void @llvm.lifetime.end.p0(i64 8, ptr nonnull %7) #15
  %37 = load ptr, ptr %4, align 8, !tbaa !32
  %38 = getelementptr inbounds nuw i8, ptr %4, i64 8
  %39 = load ptr, ptr %38, align 8, !tbaa !32
  %.not9 = icmp eq ptr %37, %39
  br i1 %.not9, label %._crit_edge, label %.lr.ph

._crit_edge:                                      ; preds = %.lr.ph, %_ZN4cvc58internal12NodeTemplateILb1EED2Ev.exit
  ret void

40:                                               ; preds = %_ZN4cvc58internal12NodeTemplateILb1EEC2ERKNS1_ILb0EEE.exit
  %41 = landingpad { ptr, i32 }
          cleanup
  call void @_ZN4cvc58internal12NodeTemplateILb1EED2Ev(ptr noundef nonnull align 8 dereferenceable(8) %7) #15
  call void @llvm.lifetime.end.p0(i64 8, ptr nonnull %7) #15
  resume { ptr, i32 } %41

.lr.ph:                                           ; preds = %_ZN4cvc58internal12NodeTemplateILb1EED2Ev.exit, %.lr.ph
  %.sroa.06.010 = phi ptr [ %42, %.lr.ph ], [ %37, %_ZN4cvc58internal12NodeTemplateILb1EED2Ev.exit ]
  call void @_ZN4cvc58internal6theory12PluginModule19notifyLemmaInternalERKNS0_12NodeTemplateILb1EEE(ptr noundef nonnull align 8 dereferenceable(160) %0, ptr noundef nonnull align 8 dereferenceable(8) %.sroa.06.010)
  %42 = getelementptr inbounds nuw i8, ptr %.sroa.06.010, i64 8
  %.not = icmp eq ptr %42, %39
  br i1 %.not, label %._crit_edge, label %.lr.ph
}